target datalayout = "e-m:e-p270:32:32-p271:32:32-p272:64:64-i64:64-i128:128-f80:128-n8:16:32:64-S128"
target triple = "x86_64-pc-linux-gnu"

; Function Attrs: nounwind uwtable
define internal void @BrotliStoreMetaBlockHeader(i64 noundef %0, i32 noundef %1, ptr noundef %2, ptr noundef %3) #0 {
  %5 = alloca i64, align 8
  %6 = alloca i32, align 4
  %7 = alloca ptr, align 8
  %8 = alloca ptr, align 8
  %9 = alloca i64, align 8
  store i64 %0, ptr %5, align 8, !tbaa !10
  store i32 %1, ptr %6, align 4, !tbaa !12
  store ptr %2, ptr %7, align 8, !tbaa !16
  store ptr %3, ptr %8, align 8, !tbaa !8
  call void @llvm.lifetime.start.p0(i64 8, ptr %9) #10
  store i64 6, ptr %9, align 8, !tbaa !10
  %10 = load ptr, ptr %7, align 8, !tbaa !16
  %11 = load ptr, ptr %8, align 8, !tbaa !8
  call void @BrotliWriteBits(i64 noundef 1, i64 noundef 0, ptr noundef %10, ptr noundef %11)
  %12 = load i64, ptr %5, align 8, !tbaa !10
  %13 = icmp ule i64 %12, 65536
  br i1 %13, label %14, label %15

14:                                               ; preds = %4
  store i64 4, ptr %9, align 8, !tbaa !10
  br label %20

15:                                               ; preds = %4
  %16 = load i64, ptr %5, align 8, !tbaa !10
  %17 = icmp ule i64 %16, 1048576
  br i1 %17, label %18, label %19

18:                                               ; preds = %15
  store i64 5, ptr %9, align 8, !tbaa !10
  br label %19

19:                                               ; preds = %18, %15
  br label %20

20:                                               ; preds = %19, %14
  %21 = load i64, ptr %9, align 8, !tbaa !10
  %22 = sub i64 %21, 4
  %23 = load ptr, ptr %7, align 8, !tbaa !16
  %24 = load ptr, ptr %8, align 8, !tbaa !8
  call void @BrotliWriteBits(i64 noundef 2, i64 noundef %22, ptr noundef %23, ptr noundef %24)
  %25 = load i64, ptr %9, align 8, !tbaa !10
  %26 = mul i64 %25, 4
  %27 = load i64, ptr %5, align 8, !tbaa !10
  %28 = sub i64 %27, 1
  %29 = load ptr, ptr %7, align 8, !tbaa !16
  %30 = load ptr, ptr %8, align 8, !tbaa !8
  call void @BrotliWriteBits(i64 noundef %26, i64 noundef %28, ptr noundef %29, ptr noundef %30)
  %31 = load i32, ptr %6, align 4, !tbaa !12
  %32 = sext i32 %31 to i64
  %33 = load ptr, ptr %7, align 8, !tbaa !16
  %34 = load ptr, ptr %8, align 8, !tbaa !8
  call void @BrotliWriteBits(i64 noundef 1, i64 noundef %32, ptr noundef %33, ptr noundef %34)
  call void @llvm.lifetime.end.p0(i64 8, ptr %9) #10
  ret void
}

; Function Attrs: nounwind uwtable
define internal void @RewindBitPosition(i64 noundef %0, ptr noundef %1, ptr noundef %2) #0 {
  %4 = alloca i64, align 8
  %5 = alloca ptr, align 8
  %6 = alloca ptr, align 8
  %7 = alloca i64, align 8
  %8 = alloca i64, align 8
  store i64 %0, ptr %4, align 8, !tbaa !10
  store ptr %1, ptr %5, align 8, !tbaa !16
  store ptr %2, ptr %6, align 8, !tbaa !8
  call void @llvm.lifetime.start.p0(i64 8, ptr %7) #10
  %9 = load i64, ptr %4, align 8, !tbaa !10
  %10 = and i64 %9, 7
  store i64 %10, ptr %7, align 8, !tbaa !10
  call void @llvm.lifetime.start.p0(i64 8, ptr %8) #10
  %11 = load i64, ptr %7, align 8, !tbaa !10
  %12 = trunc i64 %11 to i32
  %13 = shl i32 1, %12
  %14 = sub i32 %13, 1
  %15 = zext i32 %14 to i64
  store i64 %15, ptr %8, align 8, !tbaa !10
  %16 = load i64, ptr %8, align 8, !tbaa !10
  %17 = trunc i64 %16 to i8
  %18 = zext i8 %17 to i32
  %19 = load ptr, ptr %6, align 8, !tbaa !8
  %20 = load i64, ptr %4, align 8, !tbaa !10
  %21 = lshr i64 %20, 3
  %22 = getelementptr inbounds nuw i8, ptr %19, i64 %21
  %23 = load i8, ptr %22, align 1, !tbaa !18
  %24 = zext i8 %23 to i32
  %25 = and i32 %24, %18
  %26 = trunc i32 %25 to i8
  store i8 %26, ptr %22, align 1, !tbaa !18
  %27 = load i64, ptr %4, align 8, !tbaa !10
  %28 = load ptr, ptr %5, align 8, !tbaa !16
  store i64 %27, ptr %28, align 8, !tbaa !10
  call void @llvm.lifetime.end.p0(i64 8, ptr %8) #10
  call void @llvm.lifetime.end.p0(i64 8, ptr %7) #10
  ret void
}

; Function Attrs: alwaysinline nounwind uwtable
define internal void @BrotliUnalignedWrite64(ptr noundef %0, i64 noundef %1) #2 {
  %3 = alloca ptr, align 8
  %4 = alloca i64, align 8
  store ptr %0, ptr %3, align 8, !tbaa !19
  store i64 %1, ptr %4, align 8, !tbaa !10
  %5 = load ptr, ptr %3, align 8, !tbaa !19
  call void @llvm.memcpy.p0.p0.i64(ptr align 1 %5, ptr align 8 %4, i64 8, i1 false)
  ret void
}

; Function Attrs: nounwind uwtable
define internal void @EmitUncompressedMetaBlock(ptr noundef %0, ptr noundef %1, i64 noundef %2, ptr noundef %3, ptr noundef %4) #0 {
  %6 = alloca ptr, align 8
  %7 = alloca ptr, align 8
  %8 = alloca i64, align 8
  %9 = alloca ptr, align 8
  %10 = alloca ptr, align 8
  %11 = alloca i64, align 8
  store ptr %0, ptr %6, align 8, !tbaa !8
  store ptr %1, ptr %7, align 8, !tbaa !8
  store i64 %2, ptr %8, align 8, !tbaa !10
  store ptr %3, ptr %9, align 8, !tbaa !16
  store ptr %4, ptr %10, align 8, !tbaa !8
  call void @llvm.lifetime.start.p0(i64 8, ptr %11) #10
  %12 = load ptr, ptr %7, align 8, !tbaa !8
  %13 = load ptr, ptr %6, align 8, !tbaa !8
  %14 = ptrtoint ptr %12 to i64
  %15 = ptrtoint ptr %13 to i64
  %16 = sub i64 %14, %15
  store i64 %16, ptr %11, align 8, !tbaa !10
  %17 = load i64, ptr %8, align 8, !tbaa !10
  %18 = load ptr, ptr %9, align 8, !tbaa !16
  %19 = load ptr, ptr %10, align 8, !tbaa !8
  call void @RewindBitPosition(i64 noundef %17, ptr noundef %18, ptr noundef %19)
  %20 = load i64, ptr %11, align 8, !tbaa !10
  %21 = load ptr, ptr %9, align 8, !tbaa !16
  %22 = load ptr, ptr %10, align 8, !tbaa !8
  call void @BrotliStoreMetaBlockHeader(i64 noundef %20, i32 noundef 1, ptr noundef %21, ptr noundef %22)
  %23 = load ptr, ptr %9, align 8, !tbaa !16
  %24 = load i64, ptr %23, align 8, !tbaa !10
  %25 = add i64 %24, 7
  %26 = and i64 %25, 4294967288
  %27 = load ptr, ptr %9, align 8, !tbaa !16
  store i64 %26, ptr %27, align 8, !tbaa !10
  %28 = load ptr, ptr %10, align 8, !tbaa !8
  %29 = load ptr, ptr %9, align 8, !tbaa !16
  %30 = load i64, ptr %29, align 8, !tbaa !10
  %31 = lshr i64 %30, 3
  %32 = getelementptr inbounds nuw i8, ptr %28, i64 %31
  %33 = load ptr, ptr %6, align 8, !tbaa !8
  %34 = load i64, ptr %11, align 8, !tbaa !10
  call void @llvm.memcpy.p0.p0.i64(ptr align 1 %32, ptr align 1 %33, i64 %34, i1 false)
  %35 = load i64, ptr %11, align 8, !tbaa !10
  %36 = shl i64 %35, 3
  %37 = load ptr, ptr %9, align 8, !tbaa !16
  %38 = load i64, ptr %37, align 8, !tbaa !10
  %39 = add i64 %38, %36
  store i64 %39, ptr %37, align 8, !tbaa !10
  %40 = load ptr, ptr %10, align 8, !tbaa !8
  %41 = load ptr, ptr %9, align 8, !tbaa !16
  %42 = load i64, ptr %41, align 8, !tbaa !10
  %43 = lshr i64 %42, 3
  %44 = getelementptr inbounds nuw i8, ptr %40, i64 %43
  store i8 0, ptr %44, align 1, !tbaa !18
  call void @llvm.lifetime.end.p0(i64 8, ptr %11) #10
  ret void
}

; Function Attrs: alwaysinline nounwind uwtable
define internal void @BrotliWriteBits(i64 noundef %0, i64 noundef %1, ptr noalias noundef %2, ptr noalias noundef %3) #2 {
  %5 = alloca i64, align 8
  %6 = alloca i64, align 8
  %7 = alloca ptr, align 8
  %8 = alloca ptr, align 8
  %9 = alloca ptr, align 8
  %10 = alloca i64, align 8
  store i64 %0, ptr %5, align 8, !tbaa !10
  store i64 %1, ptr %6, align 8, !tbaa !10
  store ptr %2, ptr %7, align 8, !tbaa !16
  store ptr %3, ptr %8, align 8, !tbaa !8
  call void @llvm.lifetime.start.p0(i64 8, ptr %9) #10
  %11 = load ptr, ptr %8, align 8, !tbaa !8
  %12 = load ptr, ptr %7, align 8, !tbaa !16
  %13 = load i64, ptr %12, align 8, !tbaa !10
  %14 = lshr i64 %13, 3
  %15 = getelementptr inbounds nuw i8, ptr %11, i64 %14
  store ptr %15, ptr %9, align 8, !tbaa !8
  call void @llvm.lifetime.start.p0(i64 8, ptr %10) #10
  %16 = load ptr, ptr %9, align 8, !tbaa !8
  %17 = load i8, ptr %16, align 1, !tbaa !18
  %18 = zext i8 %17 to i64
  store i64 %18, ptr %10, align 8, !tbaa !10
  %19 = load i64, ptr %6, align 8, !tbaa !10
  %20 = load ptr, ptr %7, align 8, !tbaa !16
  %21 = load i64, ptr %20, align 8, !tbaa !10
  %22 = and i64 %21, 7
  %23 = shl i64 %19, %22
  %24 = load i64, ptr %10, align 8, !tbaa !10
  %25 = or i64 %24, %23
  store i64 %25, ptr %10, align 8, !tbaa !10
  %26 = load ptr, ptr %9, align 8, !tbaa !8
  %27 = load i64, ptr %10, align 8, !tbaa !10
  call void @BrotliUnalignedWrite64(ptr noundef %26, i64 noundef %27)
  %28 = load i64, ptr %5, align 8, !tbaa !10
  %29 = load ptr, ptr %7, align 8, !tbaa !16
  %30 = load i64, ptr %29, align 8, !tbaa !10
  %31 = add i64 %30, %28
  store i64 %31, ptr %29, align 8, !tbaa !10
  call void @llvm.lifetime.end.p0(i64 8, ptr %10) #10
  call void @llvm.lifetime.end.p0(i64 8, ptr %9) #10
  ret void
}

; Function Attrs: alwaysinline nounwind uwtable
define internal i32 @Log2FloorNonZero(i64 noundef %0) #2 {
  %2 = alloca i64, align 8
  store i64 %0, ptr %2, align 8, !tbaa !10
  %3 = load i64, ptr %2, align 8, !tbaa !10
  %4 = trunc i64 %3 to i32
  %5 = call i32 @llvm.ctlz.i32(i32 %4, i1 true)
  %6 = xor i32 31, %5
  ret i32 %6
}

; Function Attrs: nounwind uwtable
define hidden void @BrotliCompressFragmentFast(ptr noundef %0, ptr noundef %1, i64 noundef %2, i32 noundef %3, ptr noundef %4, i64 noundef %5, ptr noundef %6, ptr noundef %7) #0 {
  %9 = alloca ptr, align 8
  %10 = alloca ptr, align 8
  %11 = alloca i64, align 8
  %12 = alloca i32, align 4
  %13 = alloca ptr, align 8
  %14 = alloca i64, align 8
  %15 = alloca ptr, align 8
  %16 = alloca ptr, align 8
  %17 = alloca i64, align 8
  %18 = alloca i64, align 8
  %19 = alloca i32, align 4
  store ptr %0, ptr %9, align 8, !tbaa !3
  store ptr %1, ptr %10, align 8, !tbaa !8
  store i64 %2, ptr %11, align 8, !tbaa !10
  store i32 %3, ptr %12, align 4, !tbaa !12
  store ptr %4, ptr %13, align 8, !tbaa !14
  store i64 %5, ptr %14, align 8, !tbaa !10
  store ptr %6, ptr %15, align 8, !tbaa !16
  store ptr %7, ptr %16, align 8, !tbaa !8
  call void @llvm.lifetime.start.p0(i64 8, ptr %17) #10
  %20 = load ptr, ptr %15, align 8, !tbaa !16
  %21 = load i64, ptr %20, align 8, !tbaa !10
  store i64 %21, ptr %17, align 8, !tbaa !10
  call void @llvm.lifetime.start.p0(i64 8, ptr %18) #10
  %22 = load i64, ptr %14, align 8, !tbaa !10
  %23 = call i32 @Log2FloorNonZero(i64 noundef %22)
  %24 = zext i32 %23 to i64
  store i64 %24, ptr %18, align 8, !tbaa !10
  %25 = load i64, ptr %11, align 8, !tbaa !10
  %26 = icmp eq i64 %25, 0
  br i1 %26, label %27, label %37

27:                                               ; preds = %8
  %28 = load ptr, ptr %15, align 8, !tbaa !16
  %29 = load ptr, ptr %16, align 8, !tbaa !8
  call void @BrotliWriteBits(i64 noundef 1, i64 noundef 1, ptr noundef %28, ptr noundef %29)
  %30 = load ptr, ptr %15, align 8, !tbaa !16
  %31 = load ptr, ptr %16, align 8, !tbaa !8
  call void @BrotliWriteBits(i64 noundef 1, i64 noundef 1, ptr noundef %30, ptr noundef %31)
  %32 = load ptr, ptr %15, align 8, !tbaa !16
  %33 = load i64, ptr %32, align 8, !tbaa !10
  %34 = add i64 %33, 7
  %35 = and i64 %34, 4294967288
  %36 = load ptr, ptr %15, align 8, !tbaa !16
  store i64 %35, ptr %36, align 8, !tbaa !10
  store i32 1, ptr %19, align 4
  br label %103

37:                                               ; preds = %8
  %38 = load i64, ptr %18, align 8, !tbaa !10
  switch i64 %38, label %71 [
    i64 9, label %39
    i64 11, label %47
    i64 13, label %55
    i64 15, label %63
  ]

39:                                               ; preds = %37
  %40 = load ptr, ptr %9, align 8, !tbaa !3
  %41 = load ptr, ptr %10, align 8, !tbaa !8
  %42 = load i64, ptr %11, align 8, !tbaa !10
  %43 = load i32, ptr %12, align 4, !tbaa !12
  %44 = load ptr, ptr %13, align 8, !tbaa !14
  %45 = load ptr, ptr %15, align 8, !tbaa !16
  %46 = load ptr, ptr %16, align 8, !tbaa !8
  call void @BrotliCompressFragmentFastImpl9(ptr noundef %40, ptr noundef %41, i64 noundef %42, i32 noundef %43, ptr noundef %44, ptr noundef %45, ptr noundef %46)
  br label %72

47:                                               ; preds = %37
  %48 = load ptr, ptr %9, align 8, !tbaa !3
  %49 = load ptr, ptr %10, align 8, !tbaa !8
  %50 = load i64, ptr %11, align 8, !tbaa !10
  %51 = load i32, ptr %12, align 4, !tbaa !12
  %52 = load ptr, ptr %13, align 8, !tbaa !14
  %53 = load ptr, ptr %15, align 8, !tbaa !16
  %54 = load ptr, ptr %16, align 8, !tbaa !8
  call void @BrotliCompressFragmentFastImpl11(ptr noundef %48, ptr noundef %49, i64 noundef %50, i32 noundef %51, ptr noundef %52, ptr noundef %53, ptr noundef %54)
  br label %72

55:                                               ; preds = %37
  %56 = load ptr, ptr %9, align 8, !tbaa !3
  %57 = load ptr, ptr %10, align 8, !tbaa !8
  %58 = load i64, ptr %11, align 8, !tbaa !10
  %59 = load i32, ptr %12, align 4, !tbaa !12
  %60 = load ptr, ptr %13, align 8, !tbaa !14
  %61 = load ptr, ptr %15, align 8, !tbaa !16
  %62 = load ptr, ptr %16, align 8, !tbaa !8
  call void @BrotliCompressFragmentFastImpl13(ptr noundef %56, ptr noundef %57, i64 noundef %58, i32 noundef %59, ptr noundef %60, ptr noundef %61, ptr noundef %62)
  br label %72

63:                                               ; preds = %37
  %64 = load ptr, ptr %9, align 8, !tbaa !3
  %65 = load ptr, ptr %10, align 8, !tbaa !8
  %66 = load i64, ptr %11, align 8, !tbaa !10
  %67 = load i32, ptr %12, align 4, !tbaa !12
  %68 = load ptr, ptr %13, align 8, !tbaa !14
  %69 = load ptr, ptr %15, align 8, !tbaa !16
  %70 = load ptr, ptr %16, align 8, !tbaa !8
  call void @BrotliCompressFragmentFastImpl15(ptr noundef %64, ptr noundef %65, i64 noundef %66, i32 noundef %67, ptr noundef %68, ptr noundef %69, ptr noundef %70)
  br label %72

71:                                               ; preds = %37
  br label %72

72:                                               ; preds = %71, %63, %55, %47, %39
  %73 = load ptr, ptr %15, align 8, !tbaa !16
  %74 = load i64, ptr %73, align 8, !tbaa !10
  %75 = load i64, ptr %17, align 8, !tbaa !10
  %76 = sub i64 %74, %75
  %77 = load i64, ptr %11, align 8, !tbaa !10
  %78 = shl i64 %77, 3
  %79 = add i64 31, %78
  %80 = icmp ugt i64 %76, %79
  br i1 %80, label %81, label %89

81:                                               ; preds = %72
  %82 = load ptr, ptr %10, align 8, !tbaa !8
  %83 = load ptr, ptr %10, align 8, !tbaa !8
  %84 = load i64, ptr %11, align 8, !tbaa !10
  %85 = getelementptr inbounds nuw i8, ptr %83, i64 %84
  %86 = load i64, ptr %17, align 8, !tbaa !10
  %87 = load ptr, ptr %15, align 8, !tbaa !16
  %88 = load ptr, ptr %16, align 8, !tbaa !8
  call void @EmitUncompressedMetaBlock(ptr noundef %82, ptr noundef %85, i64 noundef %86, ptr noundef %87, ptr noundef %88)
  br label %89

89:                                               ; preds = %81, %72
  %90 = load i32, ptr %12, align 4, !tbaa !12
  %91 = icmp ne i32 %90, 0
  br i1 %91, label %92, label %102

92:                                               ; preds = %89
  %93 = load ptr, ptr %15, align 8, !tbaa !16
  %94 = load ptr, ptr %16, align 8, !tbaa !8
  call void @BrotliWriteBits(i64 noundef 1, i64 noundef 1, ptr noundef %93, ptr noundef %94)
  %95 = load ptr, ptr %15, align 8, !tbaa !16
  %96 = load ptr, ptr %16, align 8, !tbaa !8
  call void @BrotliWriteBits(i64 noundef 1, i64 noundef 1, ptr noundef %95, ptr noundef %96)
  %97 = load ptr, ptr %15, align 8, !tbaa !16
  %98 = load i64, ptr %97, align 8, !tbaa !10
  %99 = add i64 %98, 7
  %100 = and i64 %99, 4294967288
  %101 = load ptr, ptr %15, align 8, !tbaa !16
  store i64 %100, ptr %101, align 8, !tbaa !10
  br label %102

102:                                              ; preds = %92, %89
  store i32 0, ptr %19, align 4
  br label %103

103:                                              ; preds = %102, %27
  call void @llvm.lifetime.end.p0(i64 8, ptr %18) #10
  call void @llvm.lifetime.end.p0(i64 8, ptr %17) #10
  %104 = load i32, ptr %19, align 4
  switch i32 %104, label %106 [
    i32 0, label %105
    i32 1, label %105
  ]

105:                                              ; preds = %103, %103
  ret void

106:                                              ; preds = %103
  unreachable
}