; Function Attrs: nounwind uwtable
define hidden void @BrotliCompressFragmentFast(ptr noundef %0, ptr noundef %1, i64 noundef %2, i32 noundef %3, ptr noundef captures(none) %4, i64 noundef %5, ptr noundef %6, ptr noundef %7) local_unnamed_addr #0 {
  %9 = load i64, ptr %6, align 8, !tbaa !3
  %10 = icmp eq i64 %2, 0
  br i1 %10, label %.sink.split, label %11

11:                                               ; preds = %8
  %12 = trunc i64 %5 to i32
  %13 = tail call range(i32 0, 33) i32 @llvm.ctlz.i32(i32 %12, i1 true)
  %14 = xor i32 %13, 31
  switch i32 %14, label %19 [
    i32 9, label %15
    i32 11, label %16
    i32 13, label %17
    i32 15, label %18
  ]

15:                                               ; preds = %11
  tail call fastcc void @BrotliCompressFragmentFastImpl9(ptr noundef %0, ptr noundef %1, i64 noundef %2, i32 noundef %3, ptr noundef %4, ptr noundef nonnull %6, ptr noundef %7)
  br label %19

16:                                               ; preds = %11
  tail call fastcc void @BrotliCompressFragmentFastImpl11(ptr noundef %0, ptr noundef %1, i64 noundef %2, i32 noundef %3, ptr noundef %4, ptr noundef nonnull %6, ptr noundef %7)
  br label %19

17:                                               ; preds = %11
  tail call fastcc void @BrotliCompressFragmentFastImpl13(ptr noundef %0, ptr noundef %1, i64 noundef %2, i32 noundef %3, ptr noundef %4, ptr noundef nonnull %6, ptr noundef %7)
  br label %19

18:                                               ; preds = %11
  tail call fastcc void @BrotliCompressFragmentFastImpl15(ptr noundef %0, ptr noundef %1, i64 noundef %2, i32 noundef %3, ptr noundef %4, ptr noundef nonnull %6, ptr noundef %7)
  br label %19

19:                                               ; preds = %11, %18, %17, %16, %15
  %20 = load i64, ptr %6, align 8, !tbaa !3
  %21 = sub i64 %20, %9
  %22 = shl i64 %2, 3
  %23 = add i64 %22, 31
  %24 = icmp ugt i64 %21, %23
  br i1 %24, label %25, label %72

25:                                               ; preds = %19
  %26 = trunc i64 %9 to i8
  %27 = and i8 %26, 7
  %notmask.i.i = shl nsw i8 -1, %27
  %28 = xor i8 %notmask.i.i, -1
  %29 = lshr i64 %9, 3
  %30 = getelementptr inbounds nuw i8, ptr %7, i64 %29
  %31 = load i8, ptr %30, align 1, !tbaa !7
  %32 = and i8 %31, %28
  store i8 %32, ptr %30, align 1, !tbaa !7
  store i64 %9, ptr %6, align 8, !tbaa !3
  tail call void @llvm.experimental.noalias.scope.decl(metadata !8)
  tail call void @llvm.experimental.noalias.scope.decl(metadata !11)
  %33 = load i8, ptr %30, align 1, !tbaa !7, !alias.scope !11, !noalias !8
  %34 = zext i8 %33 to i64
  store i64 %34, ptr %30, align 1, !noalias !8
  %35 = add i64 %9, 1
  store i64 %35, ptr %6, align 8, !tbaa !3, !alias.scope !8, !noalias !11
  %36 = icmp ult i64 %2, 65537
  %37 = icmp ult i64 %2, 1048577
  %spec.select.i.i = select i1 %37, i64 5, i64 6
  %.0.i.i = select i1 %36, i64 4, i64 %spec.select.i.i
  %38 = add nsw i64 %.0.i.i, -4
  tail call void @llvm.experimental.noalias.scope.decl(metadata !13)
  tail call void @llvm.experimental.noalias.scope.decl(metadata !16)
  %39 = lshr i64 %35, 3
  %40 = getelementptr inbounds nuw i8, ptr %7, i64 %39
  %41 = load i8, ptr %40, align 1, !tbaa !7, !alias.scope !16, !noalias !13
  %42 = zext i8 %41 to i64
  %43 = and i64 %35, 7
  %44 = shl nuw nsw i64 %38, %43
  %45 = or i64 %44, %42
  store i64 %45, ptr %40, align 1, !noalias !13
  %46 = add i64 %9, 3
  store i64 %46, ptr %6, align 8, !tbaa !3, !alias.scope !13, !noalias !16
  %47 = shl nuw nsw i64 %.0.i.i, 2
  %48 = add i64 %2, -1
  tail call void @llvm.experimental.noalias.scope.decl(metadata !18)
  tail call void @llvm.experimental.noalias.scope.decl(metadata !21)
  %49 = lshr i64 %46, 3
  %50 = getelementptr inbounds nuw i8, ptr %7, i64 %49
  %51 = load i8, ptr %50, align 1, !tbaa !7, !alias.scope !21, !noalias !18
  %52 = zext i8 %51 to i64
  %53 = and i64 %46, 7
  %54 = shl i64 %48, %53
  %55 = or i64 %54, %52
  store i64 %55, ptr %50, align 1, !noalias !18
  %56 = add i64 %46, %47
  store i64 %56, ptr %6, align 8, !tbaa !3, !alias.scope !18, !noalias !21
  %57 = lshr i64 %56, 3
  %58 = getelementptr inbounds nuw i8, ptr %7, i64 %57
  %59 = load i8, ptr %58, align 1, !tbaa !7, !alias.scope !23, !noalias !26
  %60 = zext i8 %59 to i64
  %61 = and i64 %56, 7
  %62 = shl nuw nsw i64 1, %61
  %63 = or i64 %62, %60
  store i64 %63, ptr %58, align 1, !noalias !26
  %64 = add i64 %56, 8
  %65 = and i64 %64, 4294967288
  store i64 %65, ptr %6, align 8, !tbaa !3
  %66 = lshr exact i64 %65, 3
  %67 = getelementptr inbounds nuw i8, ptr %7, i64 %66
  tail call void @llvm.memcpy.p0.p0.i64(ptr align 1 %67, ptr align 1 %1, i64 %2, i1 false)
  %68 = load i64, ptr %6, align 8, !tbaa !3
  %69 = add i64 %68, %22
  store i64 %69, ptr %6, align 8, !tbaa !3
  %70 = lshr i64 %69, 3
  %71 = getelementptr inbounds nuw i8, ptr %7, i64 %70
  store i8 0, ptr %71, align 1, !tbaa !7
  br label %72

72:                                               ; preds = %25, %19
  %.not = icmp eq i32 %3, 0
  br i1 %.not, label %92, label %73

73:                                               ; preds = %72
  %74 = load i64, ptr %6, align 8, !tbaa !3, !alias.scope !28, !noalias !31
  br label %.sink.split

.sink.split:                                      ; preds = %8, %73
  %.sink75 = phi i64 [ %74, %73 ], [ %9, %8 ]
  %75 = lshr i64 %.sink75, 3
  %76 = getelementptr inbounds nuw i8, ptr %7, i64 %75
  %77 = load i8, ptr %76, align 1, !tbaa !7, !noalias !33
  %78 = zext i8 %77 to i64
  %79 = and i64 %.sink75, 7
  %80 = shl nuw nsw i64 1, %79
  %81 = or i64 %80, %78
  store i64 %81, ptr %76, align 1, !noalias !33
  %82 = add i64 %.sink75, 1
  store i64 %82, ptr %6, align 8, !tbaa !3, !noalias !33
  %83 = lshr i64 %82, 3
  %84 = getelementptr inbounds nuw i8, ptr %7, i64 %83
  %85 = load i8, ptr %84, align 1, !tbaa !7, !noalias !33
  %86 = zext i8 %85 to i64
  %87 = and i64 %82, 7
  %88 = shl nuw nsw i64 1, %87
  %89 = or i64 %88, %86
  store i64 %89, ptr %84, align 1, !noalias !33
  %90 = add i64 %.sink75, 9
  %91 = and i64 %90, 4294967288
  store i64 %91, ptr %6, align 8, !tbaa !3
  br label %92

92:                                               ; preds = %.sink.split, %72
  ret void
}